EXPORTS
??$convert@_JUHalf@at@@@at@@YA_JUHalf@0@@Z
??$convert@NUHalf@at@@@at@@YANUHalf@0@@Z
??$convert@UHalf@at@@_J@at@@YA?AUHalf@0@_J@Z
??$convert@UHalf@at@@N@at@@YA?AUHalf@0@N@Z
??0Context@at@@QEAA@XZ
??0Scalar@at@@QEAA@$$QEAV01@@Z
??0Scalar@at@@QEAA@_J@Z
??0Scalar@at@@QEAA@AEBUTensorBase@detail@1@@Z
??0Scalar@at@@QEAA@AEBV01@@Z
??0Scalar@at@@QEAA@C@Z
??0Scalar@at@@QEAA@E@Z
??0Scalar@at@@QEAA@F@Z
??0Scalar@at@@QEAA@H@Z
??0Scalar@at@@QEAA@M@Z
??0Scalar@at@@QEAA@N@Z
??0Scalar@at@@QEAA@U__half@@@Z
??0Scalar@at@@QEAA@UHalf@1@@Z
??0Scalar@at@@QEAA@XZ
??0Type@at@@QEAA@AEBU01@@Z
??0Type@at@@QEAA@PEAVContext@1@@Z
??0UndefinedTensor@at@@AEAA@XZ
??1Context@at@@QEAA@XZ
??1Scalar@at@@QEAA@XZ
??1Type@at@@UEAA@XZ
??1UndefinedTensor@at@@UEAA@XZ
??4Scalar@at@@QEAAAEAV01@$$QEAV01@@Z
??4Scalar@at@@QEAAAEAV01@AEBV01@@Z
??4Type@at@@QEAAAEAU01@AEBU01@@Z
??6at@@YAAEAV?$basic_ostream@DU?$char_traits@D@std@@@std@@AEAV12@V?$ArrayRef@_J@0@@Z
??6at@@YAAEAV?$basic_ostream@DU?$char_traits@D@std@@@std@@AEAV12@W4Backend@0@@Z
??6at@@YAAEAV?$basic_ostream@DU?$char_traits@D@std@@@std@@AEAV12@W4ScalarType@0@@Z
??8Type@at@@QEBA_NAEBU01@@Z
??_7Type@at@@6B@
??_7UndefinedTensor@at@@6B@
?__and__@Type@at@@QEBA?AUTensor@2@AEBU32@0@Z
?__and__@Type@at@@UEBA?AUTensor@2@AEBU32@VScalar@2@@Z
?__and___out@Type@at@@QEBAAEAUTensor@2@AEAU32@AEBU32@1@Z
?__and___out@Type@at@@UEBAAEAUTensor@2@AEAU32@AEBU32@VScalar@2@@Z
?__iand__@Type@at@@QEBAAEAUTensor@2@AEAU32@AEBU32@@Z
?__iand__@Type@at@@UEBAAEAUTensor@2@AEAU32@VScalar@2@@Z
?__ilshift__@Type@at@@QEBAAEAUTensor@2@AEAU32@AEBU32@@Z
?__ilshift__@Type@at@@UEBAAEAUTensor@2@AEAU32@VScalar@2@@Z
?__ior__@Type@at@@QEBAAEAUTensor@2@AEAU32@AEBU32@@Z
?__ior__@Type@at@@UEBAAEAUTensor@2@AEAU32@VScalar@2@@Z
?__irshift__@Type@at@@QEBAAEAUTensor@2@AEAU32@AEBU32@@Z
?__irshift__@Type@at@@UEBAAEAUTensor@2@AEAU32@VScalar@2@@Z
?__ixor__@Type@at@@QEBAAEAUTensor@2@AEAU32@AEBU32@@Z
?__ixor__@Type@at@@UEBAAEAUTensor@2@AEAU32@VScalar@2@@Z
?__lshift__@Type@at@@QEBA?AUTensor@2@AEBU32@0@Z
?__lshift__@Type@at@@UEBA?AUTensor@2@AEBU32@VScalar@2@@Z
?__lshift___out@Type@at@@QEBAAEAUTensor@2@AEAU32@AEBU32@1@Z
?__lshift___out@Type@at@@UEBAAEAUTensor@2@AEAU32@AEBU32@VScalar@2@@Z
?__or__@Type@at@@QEBA?AUTensor@2@AEBU32@0@Z
?__or__@Type@at@@UEBA?AUTensor@2@AEBU32@VScalar@2@@Z
?__or___out@Type@at@@QEBAAEAUTensor@2@AEAU32@AEBU32@1@Z
?__or___out@Type@at@@UEBAAEAUTensor@2@AEAU32@AEBU32@VScalar@2@@Z
?__rshift__@Type@at@@QEBA?AUTensor@2@AEBU32@0@Z
?__rshift__@Type@at@@UEBA?AUTensor@2@AEBU32@VScalar@2@@Z
?__rshift___out@Type@at@@QEBAAEAUTensor@2@AEAU32@AEBU32@1@Z
?__rshift___out@Type@at@@UEBAAEAUTensor@2@AEAU32@AEBU32@VScalar@2@@Z
?__xor__@Type@at@@QEBA?AUTensor@2@AEBU32@0@Z
?__xor__@Type@at@@UEBA?AUTensor@2@AEBU32@VScalar@2@@Z
?__xor___out@Type@at@@QEBAAEAUTensor@2@AEAU32@AEBU32@1@Z
?__xor___out@Type@at@@UEBAAEAUTensor@2@AEAU32@AEBU32@VScalar@2@@Z
?_sigmoid@Type@at@@UEBA?AUTensor@2@AEBU32@@Z
?_sigmoid_backward@Type@at@@UEBA?AUTensor@2@AEBU32@0@Z
?_sigmoid_backward_out@Type@at@@UEBAAEAUTensor@2@AEAU32@AEBU32@1@Z
?_sigmoid_forward@Type@at@@UEBA?AUTensor@2@AEBU32@@Z
?_sigmoid_forward_out@Type@at@@UEBAAEAUTensor@2@AEAU32@AEBU32@@Z
?_sigmoid_out@Type@at@@UEBAAEAUTensor@2@AEAU32@AEBU32@@Z
?_singleton@UndefinedTensor@at@@0U12@A
?_tanh@Type@at@@UEBA?AUTensor@2@AEBU32@@Z
?_tanh_backward@Type@at@@UEBA?AUTensor@2@AEBU32@0@Z
?_tanh_backward_out@Type@at@@UEBAAEAUTensor@2@AEAU32@AEBU32@1@Z
?_tanh_forward@Type@at@@UEBA?AUTensor@2@AEBU32@@Z
?_tanh_forward_out@Type@at@@UEBAAEAUTensor@2@AEAU32@AEBU32@@Z
?_tanh_out@Type@at@@UEBAAEAUTensor@2@AEAU32@AEBU32@@Z
?_unnarrow@Type@at@@UEBA?AUTensor@2@AEBU32@_J11@Z
?_unnarrow_out@Type@at@@UEBAAEAUTensor@2@AEAU32@AEBU32@_J22@Z
?abs@Type@at@@UEBA?AUTensor@2@AEBU32@@Z
?abs_out@Type@at@@UEBAAEAUTensor@2@AEAU32@AEBU32@@Z
?acos@Type@at@@UEBA?AUTensor@2@AEBU32@@Z
?acos_out@Type@at@@UEBAAEAUTensor@2@AEAU32@AEBU32@@Z
?adaptive_max_pool2d@Type@at@@UEBA?AV?$tuple@UTensor@at@@U12@@std@@AEBUTensor@2@V?$ArrayRef@_J@2@@Z
?adaptive_max_pool2d_backward@Type@at@@UEBA?AUTensor@2@AEBU32@00@Z
?adaptive_max_pool2d_backward_out@Type@at@@UEBAAEAUTensor@2@AEAU32@AEBU32@11@Z
?adaptive_max_pool2d_forward@Type@at@@UEBA?AV?$tuple@UTensor@at@@U12@@std@@AEBUTensor@2@V?$ArrayRef@_J@2@@Z
?adaptive_max_pool2d_forward_out@Type@at@@UEBA?AV?$tuple@AEAUTensor@at@@AEAU12@@std@@AEAUTensor@2@0AEBU52@V?$ArrayRef@_J@2@@Z
?adaptive_max_pool2d_out@Type@at@@UEBA?AV?$tuple@AEAUTensor@at@@AEAU12@@std@@AEAUTensor@2@0AEBU52@V?$ArrayRef@_J@2@@Z
?add@Type@at@@QEBA?AUTensor@2@AEBU32@0VScalar@2@@Z
?add@Type@at@@UEBA?AUTensor@2@AEBU32@USparseTensor@2@VScalar@2@@Z
?add@Type@at@@UEBA?AUTensor@2@AEBU32@VScalar@2@1@Z
?add_out@Type@at@@QEBAAEAUTensor@2@AEAU32@AEBU32@1VScalar@2@@Z
?add_out@Type@at@@UEBAAEAUTensor@2@AEAU32@AEBU32@USparseTensor@2@VScalar@2@@Z
?add_out@Type@at@@UEBAAEAUTensor@2@AEAU32@AEBU32@VScalar@2@2@Z
?addbmm@Type@at@@QEBA?AUTensor@2@AEBU32@00VScalar@2@1@Z
?addbmm_out@Type@at@@QEBAAEAUTensor@2@AEAU32@AEBU32@11VScalar@2@2@Z
?addcdiv@Type@at@@QEBA?AUTensor@2@AEBU32@00VScalar@2@@Z
?addcdiv_out@Type@at@@QEBAAEAUTensor@2@AEAU32@AEBU32@11VScalar@2@@Z
?addcmul@Type@at@@QEBA?AUTensor@2@AEBU32@00VScalar@2@@Z
?addcmul_out@Type@at@@QEBAAEAUTensor@2@AEAU32@AEBU32@11VScalar@2@@Z
?addmm@Type@at@@QEBA?AUTensor@2@AEBU32@00VScalar@2@1@Z
?addmm_out@Type@at@@QEBAAEAUTensor@2@AEAU32@AEBU32@11VScalar@2@2@Z
?addmv@Type@at@@QEBA?AUTensor@2@AEBU32@00VScalar@2@1@Z
?addmv_out@Type@at@@QEBAAEAUTensor@2@AEAU32@AEBU32@11VScalar@2@2@Z
?addr@Type@at@@QEBA?AUTensor@2@AEBU32@00VScalar@2@1@Z
?addr_out@Type@at@@QEBAAEAUTensor@2@AEAU32@AEBU32@11VScalar@2@2@Z
?alias@Type@at@@UEBA?AUTensor@2@AEBU32@@Z
?arange@Type@at@@UEBA?AUTensor@2@VScalar@2@00@Z
?arange@Type@at@@UEBA?AUTensor@2@VScalar@2@@Z
?arange_out@Type@at@@UEBAAEAUTensor@2@AEAU32@VScalar@2@11@Z
?arange_out@Type@at@@UEBAAEAUTensor@2@AEAU32@VScalar@2@@Z
?as_strided@Type@at@@UEBA?AUTensor@2@AEBU32@V?$ArrayRef@_J@2@1@Z
?as_strided_@Type@at@@UEBAAEAUTensor@2@AEAU32@V?$ArrayRef@_J@2@1_J@Z
?as_strided_out@Type@at@@UEBAAEAUTensor@2@AEAU32@AEBU32@V?$ArrayRef@_J@2@2@Z
?asin@Type@at@@UEBA?AUTensor@2@AEBU32@@Z
?asin_out@Type@at@@UEBAAEAUTensor@2@AEAU32@AEBU32@@Z
?assign_@UndefinedTensor@at@@UEAAXVScalar@2@@Z
?atan2@Type@at@@QEBA?AUTensor@2@AEBU32@0@Z
?atan2_out@Type@at@@QEBAAEAUTensor@2@AEAU32@AEBU32@1@Z
?atan@Type@at@@UEBA?AUTensor@2@AEBU32@@Z
?atan_out@Type@at@@UEBAAEAUTensor@2@AEAU32@AEBU32@@Z
?avg_pool2d@Type@at@@UEBA?AUTensor@2@AEBU32@V?$ArrayRef@_J@2@11_N2@Z
?avg_pool2d_backward@Type@at@@UEBA?AUTensor@2@AEBU32@0V?$ArrayRef@_J@2@11_N2@Z
?avg_pool2d_backward_out@Type@at@@UEBAAEAUTensor@2@AEAU32@AEBU32@1V?$ArrayRef@_J@2@22_N3@Z
?avg_pool2d_forward@Type@at@@UEBA?AUTensor@2@AEBU32@V?$ArrayRef@_J@2@11_N2@Z
?avg_pool2d_forward_out@Type@at@@UEBAAEAUTensor@2@AEAU32@AEBU32@V?$ArrayRef@_J@2@22_N3@Z
?avg_pool2d_out@Type@at@@UEBAAEAUTensor@2@AEAU32@AEBU32@V?$ArrayRef@_J@2@22_N3@Z
?avg_pool3d@Type@at@@UEBA?AUTensor@2@AEBU32@V?$ArrayRef@_J@2@11_N2@Z
?avg_pool3d_backward@Type@at@@UEBA?AUTensor@2@AEBU32@0V?$ArrayRef@_J@2@11_N2@Z
?avg_pool3d_backward_out@Type@at@@UEBAAEAUTensor@2@AEAU32@AEBU32@1V?$ArrayRef@_J@2@22_N3@Z
?avg_pool3d_forward@Type@at@@UEBA?AUTensor@2@AEBU32@V?$ArrayRef@_J@2@11_N2@Z
?avg_pool3d_forward_out@Type@at@@UEBAAEAUTensor@2@AEAU32@AEBU32@V?$ArrayRef@_J@2@22_N3@Z
?avg_pool3d_out@Type@at@@UEBAAEAUTensor@2@AEAU32@AEBU32@V?$ArrayRef@_J@2@22_N3@Z
?baddbmm@Type@at@@QEBA?AUTensor@2@AEBU32@00VScalar@2@1@Z
?baddbmm_out@Type@at@@QEBAAEAUTensor@2@AEAU32@AEBU32@11VScalar@2@2@Z
?batch_norm@Type@at@@UEBA?AUTensor@2@AEBU32@0000_NNN@Z
?batch_norm_backward@Type@at@@UEBA?AV?$tuple@UTensor@at@@U12@U12@@std@@AEBUTensor@2@0000_NN00V?$array@_N$02@4@@Z
?batch_norm_backward_out@Type@at@@UEBA?AV?$tuple@AEAUTensor@at@@AEAU12@AEAU12@@std@@AEAUTensor@2@00AEBU52@1111_NN11@Z
?batch_norm_forward@Type@at@@UEBA?AUTensor@2@AEBU32@0000_NNN00@Z
?batch_norm_forward_out@Type@at@@UEBAAEAUTensor@2@AEAU32@AEBU32@1111_NNN11@Z
?batch_norm_out@Type@at@@UEBAAEAUTensor@2@AEAU32@AEBU32@1111_NNN@Z
?binary_cross_entropy@Type@at@@UEBA?AUTensor@2@AEBU32@00_N@Z
?binary_cross_entropy_backward@Type@at@@UEBA?AUTensor@2@AEBU32@00_N@Z
?binary_cross_entropy_backward_out@Type@at@@UEBAAEAUTensor@2@AEAU32@AEBU32@11_N@Z
?binary_cross_entropy_forward@Type@at@@UEBA?AUTensor@2@AEBU32@00_N@Z
?binary_cross_entropy_forward_out@Type@at@@UEBAAEAUTensor@2@AEAU32@AEBU32@11_N@Z
?binary_cross_entropy_out@Type@at@@UEBAAEAUTensor@2@AEAU32@AEBU32@11_N@Z
?bmm@Type@at@@UEBA?AUTensor@2@AEBU32@0@Z
?bmm_out@Type@at@@UEBAAEAUTensor@2@AEAU32@AEBU32@1@Z
?btrifact@Type@at@@UEBA?AV?$tuple@UTensor@at@@U12@@std@@AEBUTensor@2@0_N@Z
?btrifact_out@Type@at@@UEBA?AV?$tuple@AEAUTensor@at@@AEAU12@@std@@AEAUTensor@2@0AEBU52@1_N@Z
?btrisolve@Type@at@@UEBA?AUTensor@2@AEBU32@00@Z
?btrisolve_out@Type@at@@UEBAAEAUTensor@2@AEAU32@AEBU32@11@Z
?cat@Type@at@@UEBA?AUTensor@2@V?$ArrayRef@UTensor@at@@@2@_J@Z
?cat_out@Type@at@@UEBAAEAUTensor@2@AEAU32@V?$ArrayRef@UTensor@at@@@2@_J@Z
?ceil@Type@at@@UEBA?AUTensor@2@AEBU32@@Z
?ceil_out@Type@at@@UEBAAEAUTensor@2@AEAU32@AEBU32@@Z
?chunk@Type@at@@UEBA?AV?$vector@UTensor@at@@V?$allocator@UTensor@at@@@std@@@std@@UTensor@2@_J1@Z
?clamp@Type@at@@UEBA?AUTensor@2@AEBU32@VScalar@2@1@Z
?clamp@Type@at@@UEBA?AUTensor@2@AEBU32@VScalar@2@@Z
?clamp_out@Type@at@@UEBAAEAUTensor@2@AEAU32@AEBU32@VScalar@2@2@Z
?clamp_out@Type@at@@UEBAAEAUTensor@2@AEAU32@AEBU32@VScalar@2@@Z
?conv2d@Type@at@@UEBA?AUTensor@2@AEBU32@0V?$ArrayRef@_J@2@011@Z
?conv2d_backward@Type@at@@UEBA?AV?$tuple@UTensor@at@@U12@U12@@std@@AEBUTensor@2@00V?$ArrayRef@_J@2@1100V?$array@_N$02@4@@Z
?conv2d_backward_out@Type@at@@UEBA?AV?$tuple@AEAUTensor@at@@AEAU12@AEAU12@@std@@AEAUTensor@2@00AEBU52@11V?$ArrayRef@_J@2@2211@Z
?conv2d_forward@Type@at@@UEBA?AUTensor@2@AEBU32@0V?$ArrayRef@_J@2@01100@Z
?conv2d_forward_out@Type@at@@UEBAAEAUTensor@2@AEAU32@AEBU32@1V?$ArrayRef@_J@2@12211@Z
?conv2d_out@Type@at@@UEBAAEAUTensor@2@AEAU32@AEBU32@1V?$ArrayRef@_J@2@122@Z
?conv3d@Type@at@@UEBA?AUTensor@2@AEBU32@0V?$ArrayRef@_J@2@011@Z
?conv3d_backward@Type@at@@UEBA?AV?$tuple@UTensor@at@@U12@U12@@std@@AEBUTensor@2@00V?$ArrayRef@_J@2@1100V?$array@_N$02@4@@Z
?conv3d_backward_out@Type@at@@UEBA?AV?$tuple@AEAUTensor@at@@AEAU12@AEAU12@@std@@AEAUTensor@2@00AEBU52@11V?$ArrayRef@_J@2@2211@Z
?conv3d_forward@Type@at@@UEBA?AUTensor@2@AEBU32@0V?$ArrayRef@_J@2@0110@Z
?conv3d_forward_out@Type@at@@UEBAAEAUTensor@2@AEAU32@AEBU32@1V?$ArrayRef@_J@2@1221@Z
?conv3d_out@Type@at@@UEBAAEAUTensor@2@AEAU32@AEBU32@1V?$ArrayRef@_J@2@122@Z
?conv_depthwise2d@Type@at@@UEBA?AUTensor@2@AEBU32@0V?$ArrayRef@_J@2@0111@Z
?conv_depthwise2d_backward@Type@at@@UEBA?AV?$tuple@UTensor@at@@U12@@std@@AEBUTensor@2@00V?$ArrayRef@_J@2@111V?$array@_N$01@4@@Z
?conv_depthwise2d_backward_out@Type@at@@UEBA?AV?$tuple@AEAUTensor@at@@AEAU12@@std@@AEAUTensor@2@0AEBU52@11V?$ArrayRef@_J@2@222@Z
?conv_depthwise2d_forward@Type@at@@UEBA?AUTensor@2@AEBU32@0V?$ArrayRef@_J@2@0111@Z
?conv_depthwise2d_forward_out@Type@at@@UEBAAEAUTensor@2@AEAU32@AEBU32@1V?$ArrayRef@_J@2@1222@Z
?conv_depthwise2d_out@Type@at@@UEBAAEAUTensor@2@AEAU32@AEBU32@1V?$ArrayRef@_J@2@1222@Z
?conv_dilated2d@Type@at@@UEBA?AUTensor@2@AEBU32@0V?$ArrayRef@_J@2@0111@Z
?conv_dilated2d_backward@Type@at@@UEBA?AV?$tuple@UTensor@at@@U12@U12@@std@@AEBUTensor@2@00V?$ArrayRef@_J@2@11100V?$array@_N$02@4@@Z
?conv_dilated2d_backward_out@Type@at@@UEBA?AV?$tuple@AEAUTensor@at@@AEAU12@AEAU12@@std@@AEAUTensor@2@00AEBU52@11V?$ArrayRef@_J@2@22211@Z
?conv_dilated2d_forward@Type@at@@UEBA?AUTensor@2@AEBU32@0V?$ArrayRef@_J@2@011100@Z
?conv_dilated2d_forward_out@Type@at@@UEBAAEAUTensor@2@AEAU32@AEBU32@1V?$ArrayRef@_J@2@122211@Z
?conv_dilated2d_out@Type@at@@UEBAAEAUTensor@2@AEAU32@AEBU32@1V?$ArrayRef@_J@2@1222@Z
?conv_dilated3d@Type@at@@UEBA?AUTensor@2@AEBU32@0V?$ArrayRef@_J@2@0111@Z
?conv_dilated3d_backward@Type@at@@UEBA?AV?$tuple@UTensor@at@@U12@U12@@std@@AEBUTensor@2@00V?$ArrayRef@_J@2@11100V?$array@_N$02@4@@Z
?conv_dilated3d_backward_out@Type@at@@UEBA?AV?$tuple@AEAUTensor@at@@AEAU12@AEAU12@@std@@AEAUTensor@2@00AEBU52@11V?$ArrayRef@_J@2@22211@Z
?conv_dilated3d_forward@Type@at@@UEBA?AUTensor@2@AEBU32@0V?$ArrayRef@_J@2@011100@Z
?conv_dilated3d_forward_out@Type@at@@UEBAAEAUTensor@2@AEAU32@AEBU32@1V?$ArrayRef@_J@2@122211@Z
?conv_dilated3d_out@Type@at@@UEBAAEAUTensor@2@AEAU32@AEBU32@1V?$ArrayRef@_J@2@1222@Z
?conv_transpose2d@Type@at@@UEBA?AUTensor@2@AEBU32@0V?$ArrayRef@_J@2@01111@Z
?conv_transpose2d_backward@Type@at@@UEBA?AV?$tuple@UTensor@at@@U12@U12@@std@@AEBUTensor@2@00V?$ArrayRef@_J@2@111100V?$array@_N$02@4@@Z
?conv_transpose2d_backward_out@Type@at@@UEBA?AV?$tuple@AEAUTensor@at@@AEAU12@AEAU12@@std@@AEAUTensor@2@00AEBU52@11V?$ArrayRef@_J@2@222211@Z
?conv_transpose2d_forward@Type@at@@UEBA?AUTensor@2@AEBU32@0V?$ArrayRef@_J@2@0111100@Z
?conv_transpose2d_forward_out@Type@at@@UEBAAEAUTensor@2@AEAU32@AEBU32@1V?$ArrayRef@_J@2@1222211@Z
?conv_transpose2d_out@Type@at@@UEBAAEAUTensor@2@AEAU32@AEBU32@1V?$ArrayRef@_J@2@12222@Z
?conv_transpose3d@Type@at@@UEBA?AUTensor@2@AEBU32@00V?$ArrayRef@_J@2@111@Z
?conv_transpose3d_backward@Type@at@@UEBA?AV?$tuple@UTensor@at@@U12@U12@@std@@AEBUTensor@2@00V?$ArrayRef@_J@2@11100V?$array@_N$02@4@@Z
?conv_transpose3d_backward_out@Type@at@@UEBA?AV?$tuple@AEAUTensor@at@@AEAU12@AEAU12@@std@@AEAUTensor@2@00AEBU52@11V?$ArrayRef@_J@2@22211@Z
?conv_transpose3d_forward@Type@at@@UEBA?AUTensor@2@AEBU32@00V?$ArrayRef@_J@2@11100@Z
?conv_transpose3d_forward_out@Type@at@@UEBAAEAUTensor@2@AEAU32@AEBU32@11V?$ArrayRef@_J@2@22211@Z
?conv_transpose3d_out@Type@at@@UEBAAEAUTensor@2@AEAU32@AEBU32@11V?$ArrayRef@_J@2@222@Z
?copy@Type@at@@QEBA?AUTensor@2@AEBU32@@Z
?copy@Type@at@@QEBAXAEBUTensor@2@AEAU32@@Z
?cos@Type@at@@UEBA?AUTensor@2@AEBU32@@Z
?cos_out@Type@at@@UEBAAEAUTensor@2@AEAU32@AEBU32@@Z
?cosh@Type@at@@UEBA?AUTensor@2@AEBU32@@Z
?cosh_out@Type@at@@UEBAAEAUTensor@2@AEAU32@AEBU32@@Z
?cross@Type@at@@UEBA?AUTensor@2@AEBU32@0_J@Z
?cross_out@Type@at@@UEBAAEAUTensor@2@AEAU32@AEBU32@1_J@Z
?cumprod@Type@at@@UEBA?AUTensor@2@AEBU32@_J@Z
?cumprod_out@Type@at@@UEBAAEAUTensor@2@AEAU32@AEBU32@_J@Z
?cumsum@Type@at@@UEBA?AUTensor@2@AEBU32@_J@Z
?cumsum_out@Type@at@@UEBAAEAUTensor@2@AEAU32@AEBU32@_J@Z
?defaultGenerator@Context@at@@QEAAAEAUGenerator@2@W4Backend@2@@Z
?diag@Type@at@@UEBA?AUTensor@2@AEBU32@_J@Z
?diag_out@Type@at@@UEBAAEAUTensor@2@AEAU32@AEBU32@_J@Z
?dim@UndefinedTensor@at@@UEBA_JXZ
?dist@Type@at@@QEBA?AVScalar@2@AEBUTensor@2@0V32@@Z
?div@Type@at@@QEBA?AUTensor@2@AEBU32@0@Z
?div@Type@at@@UEBA?AUTensor@2@AEBU32@VScalar@2@@Z
?div_out@Type@at@@QEBAAEAUTensor@2@AEAU32@AEBU32@1@Z
?div_out@Type@at@@UEBAAEAUTensor@2@AEAU32@AEBU32@VScalar@2@@Z
?doInitCUDA@Context@at@@AEAAXXZ
?dot@Type@at@@UEBA?AVScalar@2@AEBUTensor@2@0@Z
?eig@Type@at@@UEBA?AV?$tuple@UTensor@at@@U12@@std@@AEBUTensor@2@_N@Z
?eig_out@Type@at@@UEBA?AV?$tuple@AEAUTensor@at@@AEAU12@@std@@AEAUTensor@2@0AEBU52@_N@Z
?elu@Type@at@@UEBA?AUTensor@2@AEBU32@VScalar@2@_N@Z
?elu_backward@Type@at@@UEBA?AUTensor@2@AEBU32@VScalar@2@0@Z
?elu_backward_out@Type@at@@UEBAAEAUTensor@2@AEAU32@AEBU32@VScalar@2@1@Z
?elu_forward@Type@at@@UEBA?AUTensor@2@AEBU32@VScalar@2@_N@Z
?elu_forward_out@Type@at@@UEBAAEAUTensor@2@AEAU32@AEBU32@VScalar@2@_N@Z
?elu_out@Type@at@@UEBAAEAUTensor@2@AEAU32@AEBU32@VScalar@2@_N@Z
?eq@Type@at@@QEBA?AUTensor@2@AEBU32@0@Z
?eq@Type@at@@UEBA?AUTensor@2@AEBU32@VScalar@2@@Z
?eq_out@Type@at@@QEBAAEAUTensor@2@AEAU32@AEBU32@1@Z
?eq_out@Type@at@@UEBAAEAUTensor@2@AEAU32@AEBU32@VScalar@2@@Z
?equal@Type@at@@UEBA_NAEBUTensor@2@0@Z
?erf@Type@at@@UEBA?AUTensor@2@AEBU32@@Z
?erf_out@Type@at@@UEBAAEAUTensor@2@AEAU32@AEBU32@@Z
?erfinv@Type@at@@UEBA?AUTensor@2@AEBU32@@Z
?erfinv_out@Type@at@@UEBAAEAUTensor@2@AEAU32@AEBU32@@Z
?exp@Type@at@@UEBA?AUTensor@2@AEBU32@@Z
?exp_out@Type@at@@UEBAAEAUTensor@2@AEAU32@AEBU32@@Z
?eye@Type@at@@UEBA?AUTensor@2@_J0@Z
?eye_out@Type@at@@UEBAAEAUTensor@2@AEAU32@_J1@Z
?floor@Type@at@@UEBA?AUTensor@2@AEBU32@@Z
?floor_out@Type@at@@UEBAAEAUTensor@2@AEAU32@AEBU32@@Z
?fmod@Type@at@@QEBA?AUTensor@2@AEBU32@0@Z
?fmod@Type@at@@UEBA?AUTensor@2@AEBU32@VScalar@2@@Z
?fmod_out@Type@at@@QEBAAEAUTensor@2@AEAU32@AEBU32@1@Z
?fmod_out@Type@at@@UEBAAEAUTensor@2@AEAU32@AEBU32@VScalar@2@@Z
?frac@Type@at@@UEBA?AUTensor@2@AEBU32@@Z
?frac_out@Type@at@@UEBAAEAUTensor@2@AEAU32@AEBU32@@Z
?fromDLPack@at@@YA?AUTensor@1@PEBUDLManagedTensor@@@Z
?gather@Type@at@@UEBA?AUTensor@2@AEBU32@_J0@Z
?gather_out@Type@at@@UEBAAEAUTensor@2@AEAU32@AEBU32@_J1@Z
?ge@Type@at@@QEBA?AUTensor@2@AEBU32@0@Z
?ge@Type@at@@UEBA?AUTensor@2@AEBU32@VScalar@2@@Z
?ge_out@Type@at@@QEBAAEAUTensor@2@AEAU32@AEBU32@1@Z
?ge_out@Type@at@@UEBAAEAUTensor@2@AEAU32@AEBU32@VScalar@2@@Z
?gels@Type@at@@UEBA?AV?$tuple@UTensor@at@@U12@@std@@AEBUTensor@2@0@Z
?gels_out@Type@at@@UEBA?AV?$tuple@AEAUTensor@at@@AEAU12@@std@@AEAUTensor@2@0AEBU52@1@Z
?geqrf@Type@at@@UEBA?AV?$tuple@UTensor@at@@U12@@std@@AEBUTensor@2@@Z
?geqrf_out@Type@at@@UEBA?AV?$tuple@AEAUTensor@at@@AEAU12@@std@@AEAUTensor@2@0AEBU52@@Z
?ger@Type@at@@UEBA?AUTensor@2@AEBU32@0@Z
?ger_out@Type@at@@UEBAAEAUTensor@2@AEAU32@AEBU32@1@Z
?gesv@Type@at@@UEBA?AV?$tuple@UTensor@at@@U12@@std@@AEBUTensor@2@0@Z
?gesv_out@Type@at@@UEBA?AV?$tuple@AEAUTensor@at@@AEAU12@@std@@AEAUTensor@2@0AEBU52@1@Z
?getType@Context@at@@QEAAAEAUType@2@W4Backend@2@W4ScalarType@2@@Z
?globalContext@at@@YAAEAVContext@1@XZ
?glu@Type@at@@UEBA?AUTensor@2@AEBU32@_J@Z
?glu_backward@Type@at@@UEBA?AUTensor@2@AEBU32@0_J@Z
?glu_backward_out@Type@at@@UEBAAEAUTensor@2@AEAU32@AEBU32@1_J@Z
?glu_forward@Type@at@@UEBA?AUTensor@2@AEBU32@_J@Z
?glu_forward_out@Type@at@@UEBAAEAUTensor@2@AEAU32@AEBU32@_J@Z
?glu_out@Type@at@@UEBAAEAUTensor@2@AEAU32@AEBU32@_J@Z
?gt@Type@at@@QEBA?AUTensor@2@AEBU32@0@Z
?gt@Type@at@@UEBA?AUTensor@2@AEBU32@VScalar@2@@Z
?gt_out@Type@at@@QEBAAEAUTensor@2@AEAU32@AEBU32@1@Z
?gt_out@Type@at@@UEBAAEAUTensor@2@AEAU32@AEBU32@VScalar@2@@Z
?hardshrink@Type@at@@UEBA?AUTensor@2@AEBU32@VScalar@2@@Z
?hardshrink_backward@Type@at@@UEBA?AUTensor@2@AEBU32@0VScalar@2@@Z
?hardshrink_backward_out@Type@at@@UEBAAEAUTensor@2@AEAU32@AEBU32@1VScalar@2@@Z
?hardshrink_forward@Type@at@@UEBA?AUTensor@2@AEBU32@VScalar@2@@Z
?hardshrink_forward_out@Type@at@@UEBAAEAUTensor@2@AEAU32@AEBU32@VScalar@2@@Z
?hardshrink_out@Type@at@@UEBAAEAUTensor@2@AEAU32@AEBU32@VScalar@2@@Z
?hardtanh@Type@at@@UEBA?AUTensor@2@AEBU32@VScalar@2@1_N@Z
?hardtanh_backward@Type@at@@UEBA?AUTensor@2@AEBU32@0VScalar@2@1@Z
?hardtanh_backward_out@Type@at@@UEBAAEAUTensor@2@AEAU32@AEBU32@1VScalar@2@2@Z
?hardtanh_forward@Type@at@@UEBA?AUTensor@2@AEBU32@VScalar@2@1_N@Z
?hardtanh_forward_out@Type@at@@UEBAAEAUTensor@2@AEAU32@AEBU32@VScalar@2@2_N@Z
?hardtanh_out@Type@at@@UEBAAEAUTensor@2@AEAU32@AEBU32@VScalar@2@2_N@Z
?hasCUDA@Context@at@@QEBA_NXZ
?histc@Type@at@@UEBA?AUTensor@2@AEBU32@_JVScalar@2@2@Z
?histc_out@Type@at@@UEBAAEAUTensor@2@AEAU32@AEBU32@_JVScalar@2@3@Z
?index_select@Type@at@@UEBA?AUTensor@2@AEBU32@_J0@Z
?index_select_out@Type@at@@UEBAAEAUTensor@2@AEAU32@AEBU32@_J1@Z
?initCUDAIfNeeded@Context@at@@AEAAXW4Backend@2@@Z
?inverse@Type@at@@UEBA?AUTensor@2@AEBU32@@Z
?inverse_out@Type@at@@UEBAAEAUTensor@2@AEAU32@AEBU32@@Z
?is_same_size@Type@at@@UEBA_NUTensor@2@0@Z
?isBackedByTensor@Scalar@at@@QEBA_NXZ
?isFloatingPoint@Scalar@at@@QEBA_NXZ
?isIntegral@Scalar@at@@QEBA_NXZ
?kl_div@Type@at@@UEBA?AUTensor@2@AEBU32@0_N1@Z
?kl_div_backward@Type@at@@UEBA?AUTensor@2@AEBU32@00_N1@Z
?kl_div_backward_out@Type@at@@UEBAAEAUTensor@2@AEAU32@AEBU32@11_N2@Z
?kl_div_forward@Type@at@@UEBA?AUTensor@2@AEBU32@0_N1@Z
?kl_div_forward_out@Type@at@@UEBAAEAUTensor@2@AEAU32@AEBU32@1_N2@Z
?kl_div_out@Type@at@@UEBAAEAUTensor@2@AEAU32@AEBU32@1_N2@Z
?kthvalue@Type@at@@UEBA?AV?$tuple@UTensor@at@@U12@@std@@AEBUTensor@2@_J1_N@Z
?kthvalue_out@Type@at@@UEBA?AV?$tuple@AEAUTensor@at@@AEAU12@@std@@AEAUTensor@2@0AEBU52@_J2_N@Z
?l1_loss@Type@at@@UEBA?AUTensor@2@AEBU32@0_N1@Z
?l1_loss_backward@Type@at@@UEBA?AUTensor@2@AEBU32@00_N1@Z
?l1_loss_backward_out@Type@at@@UEBAAEAUTensor@2@AEAU32@AEBU32@11_N2@Z
?l1_loss_forward@Type@at@@UEBA?AUTensor@2@AEBU32@0_N1@Z
?l1_loss_forward_out@Type@at@@UEBAAEAUTensor@2@AEAU32@AEBU32@1_N2@Z
?l1_loss_out@Type@at@@UEBAAEAUTensor@2@AEAU32@AEBU32@1_N2@Z
?lazyInitCUDA@Context@at@@QEAAPEAUTHCState@@XZ
?le@Type@at@@QEBA?AUTensor@2@AEBU32@0@Z
?le@Type@at@@UEBA?AUTensor@2@AEBU32@VScalar@2@@Z
?le_out@Type@at@@QEBAAEAUTensor@2@AEAU32@AEBU32@1@Z
?le_out@Type@at@@UEBAAEAUTensor@2@AEAU32@AEBU32@VScalar@2@@Z
?leaky_relu@Type@at@@UEBA?AUTensor@2@AEBU32@VScalar@2@_N@Z
?leaky_relu_backward@Type@at@@UEBA?AUTensor@2@AEBU32@0VScalar@2@@Z
?leaky_relu_backward_out@Type@at@@UEBAAEAUTensor@2@AEAU32@AEBU32@1VScalar@2@@Z
?leaky_relu_forward@Type@at@@UEBA?AUTensor@2@AEBU32@VScalar@2@_N@Z
?leaky_relu_forward_out@Type@at@@UEBAAEAUTensor@2@AEAU32@AEBU32@VScalar@2@_N@Z
?leaky_relu_out@Type@at@@UEBAAEAUTensor@2@AEAU32@AEBU32@VScalar@2@_N@Z
?lerp@Type@at@@QEBA?AUTensor@2@AEBU32@0VScalar@2@@Z
?lerp_out@Type@at@@QEBAAEAUTensor@2@AEAU32@AEBU32@1VScalar@2@@Z
?lgamma@Type@at@@UEBA?AUTensor@2@AEBU32@@Z
?lgamma_out@Type@at@@UEBAAEAUTensor@2@AEAU32@AEBU32@@Z
?linspace@Type@at@@UEBA?AUTensor@2@VScalar@2@0_J@Z
?linspace_out@Type@at@@UEBAAEAUTensor@2@AEAU32@VScalar@2@1_J@Z
?local@Scalar@at@@QEBA?AV12@XZ
?localScalar@UndefinedTensor@at@@UEAA?AVScalar@2@XZ
?log1p@Type@at@@UEBA?AUTensor@2@AEBU32@@Z
?log1p_out@Type@at@@UEBAAEAUTensor@2@AEAU32@AEBU32@@Z
?log@Type@at@@UEBA?AUTensor@2@AEBU32@@Z
?log_out@Type@at@@UEBAAEAUTensor@2@AEAU32@AEBU32@@Z
?log_sigmoid@Type@at@@UEBA?AUTensor@2@AEBU32@@Z
?log_sigmoid_backward@Type@at@@UEBA?AUTensor@2@AEBU32@00@Z
?log_sigmoid_backward_out@Type@at@@UEBAAEAUTensor@2@AEAU32@AEBU32@11@Z
?log_sigmoid_forward@Type@at@@UEBA?AUTensor@2@AEBU32@0@Z
?log_sigmoid_forward_out@Type@at@@UEBAAEAUTensor@2@AEAU32@AEBU32@1@Z
?log_sigmoid_out@Type@at@@UEBAAEAUTensor@2@AEAU32@AEBU32@@Z
?log_softmax@Type@at@@UEBA?AUTensor@2@AEBU32@_J@Z
?log_softmax_backward@Type@at@@UEBA?AUTensor@2@AEBU32@0_J0@Z
?log_softmax_backward_out@Type@at@@UEBAAEAUTensor@2@AEAU32@AEBU32@1_J1@Z
?log_softmax_forward@Type@at@@UEBA?AUTensor@2@AEBU32@_J@Z
?log_softmax_forward_out@Type@at@@UEBAAEAUTensor@2@AEAU32@AEBU32@_J@Z
?log_softmax_out@Type@at@@UEBAAEAUTensor@2@AEAU32@AEBU32@_J@Z
?logspace@Type@at@@UEBA?AUTensor@2@VScalar@2@0_J@Z
?logspace_out@Type@at@@UEBAAEAUTensor@2@AEAU32@VScalar@2@1_J@Z
?lt@Type@at@@QEBA?AUTensor@2@AEBU32@0@Z
?lt@Type@at@@UEBA?AUTensor@2@AEBU32@VScalar@2@@Z
?lt_out@Type@at@@QEBAAEAUTensor@2@AEAU32@AEBU32@1@Z
?lt_out@Type@at@@UEBAAEAUTensor@2@AEAU32@AEBU32@VScalar@2@@Z
?m_abs_@Type@at@@UEBAAEAUTensor@2@AEAU32@@Z
?m_acos_@Type@at@@UEBAAEAUTensor@2@AEAU32@@Z
?m_add_@Type@at@@QEBAAEAUTensor@2@AEAU32@AEBU32@VScalar@2@@Z
?m_add_@Type@at@@UEBAAEAUTensor@2@AEAU32@USparseTensor@2@VScalar@2@@Z
?m_add_@Type@at@@UEBAAEAUTensor@2@AEAU32@VScalar@2@1@Z
?m_addbmm_@Type@at@@UEBAAEAUTensor@2@AEAU32@AEBU32@1VScalar@2@2@Z
?m_addcdiv_@Type@at@@QEBAAEAUTensor@2@AEAU32@AEBU32@1VScalar@2@@Z
?m_addcmul_@Type@at@@QEBAAEAUTensor@2@AEAU32@AEBU32@1VScalar@2@@Z
?m_addmm_@Type@at@@UEBAAEAUTensor@2@AEAU32@AEBU32@1VScalar@2@2@Z
?m_addmv_@Type@at@@UEBAAEAUTensor@2@AEAU32@AEBU32@1VScalar@2@2@Z
?m_addr_@Type@at@@UEBAAEAUTensor@2@AEAU32@AEBU32@1VScalar@2@2@Z
?m_all@Type@at@@UEBA_NAEBUTensor@2@@Z
?m_any@Type@at@@UEBA_NAEBUTensor@2@@Z
?m_asin_@Type@at@@UEBAAEAUTensor@2@AEAU32@@Z
?m_assign_@Type@at@@UEBAAEAUTensor@2@AEAU32@AEBU32@@Z
?m_atan2_@Type@at@@QEBAAEAUTensor@2@AEAU32@AEBU32@@Z
?m_atan_@Type@at@@UEBAAEAUTensor@2@AEAU32@@Z
?m_baddbmm_@Type@at@@UEBAAEAUTensor@2@AEAU32@AEBU32@1VScalar@2@2@Z
?m_cauchy_@Type@at@@UEBAAEAUTensor@2@AEAU32@NNPEAUGenerator@2@@Z
?m_ceil_@Type@at@@UEBAAEAUTensor@2@AEAU32@@Z
?m_clamp_@Type@at@@UEBAAEAUTensor@2@AEAU32@VScalar@2@1@Z
?m_clamp_@Type@at@@UEBAAEAUTensor@2@AEAU32@VScalar@2@@Z
?m_clone@Type@at@@UEBA?AUTensor@2@AEBU32@@Z
?m_contiguous@Type@at@@UEBA?AUTensor@2@AEBU32@@Z
?m_cos_@Type@at@@UEBAAEAUTensor@2@AEAU32@@Z
?m_cosh_@Type@at@@UEBAAEAUTensor@2@AEAU32@@Z
?m_data_ptr@Type@at@@UEBAPEAXAEBUTensor@2@@Z
?m_div_@Type@at@@QEBAAEAUTensor@2@AEAU32@AEBU32@@Z
?m_div_@Type@at@@UEBAAEAUTensor@2@AEAU32@VScalar@2@@Z
?m_eq_@Type@at@@QEBAAEAUTensor@2@AEAU32@AEBU32@@Z
?m_eq_@Type@at@@UEBAAEAUTensor@2@AEAU32@VScalar@2@@Z
?m_erf_@Type@at@@UEBAAEAUTensor@2@AEAU32@@Z
?m_erfinv_@Type@at@@UEBAAEAUTensor@2@AEAU32@@Z
?m_exp_@Type@at@@UEBAAEAUTensor@2@AEAU32@@Z
?m_expand@Type@at@@UEBA?AUTensor@2@AEBU32@V?$ArrayRef@_J@2@@Z
?m_exponential_@Type@at@@UEBAAEAUTensor@2@AEAU32@NPEAUGenerator@2@@Z
?m_fill_@Type@at@@UEBAAEAUTensor@2@AEAU32@VScalar@2@@Z
?m_floor_@Type@at@@UEBAAEAUTensor@2@AEAU32@@Z
?m_fmod_@Type@at@@QEBAAEAUTensor@2@AEAU32@AEBU32@@Z
?m_fmod_@Type@at@@UEBAAEAUTensor@2@AEAU32@VScalar@2@@Z
?m_frac_@Type@at@@UEBAAEAUTensor@2@AEAU32@@Z
?m_ge_@Type@at@@QEBAAEAUTensor@2@AEAU32@AEBU32@@Z
?m_ge_@Type@at@@UEBAAEAUTensor@2@AEAU32@VScalar@2@@Z
?m_geometric_@Type@at@@UEBAAEAUTensor@2@AEAU32@NPEAUGenerator@2@@Z
?m_get_device@Type@at@@UEBA_JAEBUTensor@2@@Z
?m_gt_@Type@at@@QEBAAEAUTensor@2@AEAU32@AEBU32@@Z
?m_gt_@Type@at@@UEBAAEAUTensor@2@AEAU32@VScalar@2@@Z
?m_index_add_@Type@at@@UEBAAEAUTensor@2@AEAU32@_JAEBU32@2@Z
?m_index_copy_@Type@at@@UEBAAEAUTensor@2@AEAU32@_JAEBU32@2@Z
?m_index_fill_@Type@at@@UEBAAEAUTensor@2@AEAU32@_JAEBU32@VScalar@2@@Z
?m_is_contiguous@Type@at@@UEBA_NAEBUTensor@2@@Z
?m_is_set_to@Type@at@@UEBA_NAEBUTensor@2@0@Z
?m_le_@Type@at@@QEBAAEAUTensor@2@AEAU32@AEBU32@@Z
?m_le_@Type@at@@UEBAAEAUTensor@2@AEAU32@VScalar@2@@Z
?m_lerp_@Type@at@@QEBAAEAUTensor@2@AEAU32@AEBU32@VScalar@2@@Z
?m_lgamma_@Type@at@@UEBAAEAUTensor@2@AEAU32@@Z
?m_log1p_@Type@at@@UEBAAEAUTensor@2@AEAU32@@Z
?m_log_@Type@at@@UEBAAEAUTensor@2@AEAU32@@Z
?m_log_normal_@Type@at@@UEBAAEAUTensor@2@AEAU32@NNPEAUGenerator@2@@Z
?m_lt_@Type@at@@QEBAAEAUTensor@2@AEAU32@AEBU32@@Z
?m_lt_@Type@at@@UEBAAEAUTensor@2@AEAU32@VScalar@2@@Z
?m_masked_fill_@Type@at@@QEBAAEAUTensor@2@AEAU32@AEBU32@VScalar@2@@Z
?m_masked_scatter_@Type@at@@QEBAAEAUTensor@2@AEAU32@AEBU32@1@Z
?m_mul_@Type@at@@QEBAAEAUTensor@2@AEAU32@AEBU32@@Z
?m_mul_@Type@at@@UEBAAEAUTensor@2@AEAU32@VScalar@2@@Z
?m_narrow@Type@at@@UEBA?AUTensor@2@AEBU32@_J11@Z
?m_ne_@Type@at@@QEBAAEAUTensor@2@AEAU32@AEBU32@@Z
?m_ne_@Type@at@@UEBAAEAUTensor@2@AEAU32@VScalar@2@@Z
?m_neg_@Type@at@@UEBAAEAUTensor@2@AEAU32@@Z
?m_normal_@Type@at@@UEBAAEAUTensor@2@AEAU32@NNPEAUGenerator@2@@Z
?m_pow_@Type@at@@QEBAAEAUTensor@2@AEAU32@AEBU32@@Z
?m_pow_@Type@at@@UEBAAEAUTensor@2@AEAU32@VScalar@2@@Z
?m_put_@Type@at@@UEBAAEAUTensor@2@AEAU32@AEBU32@1_N@Z
?m_random_@Type@at@@UEBAAEAUTensor@2@AEAU32@_J1PEAUGenerator@2@@Z
?m_random_@Type@at@@UEBAAEAUTensor@2@AEAU32@_JPEAUGenerator@2@@Z
?m_random_@Type@at@@UEBAAEAUTensor@2@AEAU32@PEAUGenerator@2@@Z
?m_reciprocal_@Type@at@@UEBAAEAUTensor@2@AEAU32@@Z
?m_remainder_@Type@at@@QEBAAEAUTensor@2@AEAU32@AEBU32@@Z
?m_remainder_@Type@at@@UEBAAEAUTensor@2@AEAU32@VScalar@2@@Z
?m_renorm_@Type@at@@UEBAAEAUTensor@2@AEAU32@VScalar@2@_J1@Z
?m_reshape_@Type@at@@UEBAAEAUTensor@2@AEAU32@V?$ArrayRef@_J@2@1@Z
?m_resize_@Type@at@@UEBAAEAUTensor@2@AEAU32@V?$ArrayRef@_J@2@@Z
?m_resize_as_@Type@at@@UEBAAEAUTensor@2@AEAU32@AEBU32@@Z
?m_round_@Type@at@@UEBAAEAUTensor@2@AEAU32@@Z
?m_rsqrt_@Type@at@@UEBAAEAUTensor@2@AEAU32@@Z
?m_scatter_@Type@at@@UEBAAEAUTensor@2@AEAU32@_JAEBU32@2@Z
?m_scatter_@Type@at@@UEBAAEAUTensor@2@AEAU32@_JAEBU32@VScalar@2@@Z
?m_scatter_add_@Type@at@@UEBAAEAUTensor@2@AEAU32@_JAEBU32@2@Z
?m_set_@Type@at@@UEBAAEAUTensor@2@AEAU32@@Z
?m_set_@Type@at@@UEBAAEAUTensor@2@AEAU32@AEAUStorage@2@@Z
?m_set_@Type@at@@UEBAAEAUTensor@2@AEAU32@AEAUStorage@2@_JV?$ArrayRef@_J@2@3@Z
?m_set_@Type@at@@UEBAAEAUTensor@2@AEAU32@AEBU32@@Z
?m_sigmoid_@Type@at@@UEBAAEAUTensor@2@AEAU32@@Z
?m_sign_@Type@at@@UEBAAEAUTensor@2@AEAU32@@Z
?m_sin_@Type@at@@UEBAAEAUTensor@2@AEAU32@@Z
?m_sinh_@Type@at@@UEBAAEAUTensor@2@AEAU32@@Z
?m_size@Type@at@@UEBA_JAEBUTensor@2@_J@Z
?m_sqrt_@Type@at@@UEBAAEAUTensor@2@AEAU32@@Z
?m_squeeze_@Type@at@@UEBAAEAUTensor@2@AEAU32@@Z
?m_squeeze_@Type@at@@UEBAAEAUTensor@2@AEAU32@_J@Z
?m_storage_offset@Type@at@@UEBA_JAEBUTensor@2@@Z
?m_stride@Type@at@@UEBA_JAEBUTensor@2@_J@Z
?m_sub_@Type@at@@QEBAAEAUTensor@2@AEAU32@AEBU32@VScalar@2@@Z
?m_sub_@Type@at@@UEBAAEAUTensor@2@AEAU32@VScalar@2@1@Z
?m_t_@Type@at@@UEBAAEAUTensor@2@AEAU32@@Z
?m_tan_@Type@at@@UEBAAEAUTensor@2@AEAU32@@Z
?m_tanh_@Type@at@@UEBAAEAUTensor@2@AEAU32@@Z
?m_transpose_@Type@at@@UEBAAEAUTensor@2@AEAU32@_J1@Z
?m_tril_@Type@at@@UEBAAEAUTensor@2@AEAU32@_J@Z
?m_triu_@Type@at@@UEBAAEAUTensor@2@AEAU32@_J@Z
?m_trunc_@Type@at@@UEBAAEAUTensor@2@AEAU32@@Z
?m_unfold@Type@at@@UEBA?AUTensor@2@AEBU32@_J11@Z
?m_uniform_@Type@at@@UEBAAEAUTensor@2@AEAU32@NNPEAUGenerator@2@@Z
?m_unsqueeze_@Type@at@@UEBAAEAUTensor@2@AEAU32@_J@Z
?m_view@Type@at@@UEBA?AUTensor@2@AEBU32@V?$ArrayRef@_J@2@@Z
?m_zero_@Type@at@@UEBAAEAUTensor@2@AEAU32@@Z
?masked_select@Type@at@@QEBA?AUTensor@2@AEBU32@0@Z
?masked_select_out@Type@at@@QEBAAEAUTensor@2@AEAU32@AEBU32@1@Z
?max@Type@at@@QEBA?AUTensor@2@AEBU32@0@Z
?max@Type@at@@UEBA?AV?$tuple@UTensor@at@@U12@@std@@AEBUTensor@2@_J_N@Z
?max@Type@at@@UEBA?AVScalar@2@AEBUTensor@2@@Z
?max_out@Type@at@@QEBAAEAUTensor@2@AEAU32@AEBU32@1@Z
?max_out@Type@at@@UEBA?AV?$tuple@AEAUTensor@at@@AEAU12@@std@@AEAUTensor@2@0AEBU52@_J_N@Z
?max_pool2d@Type@at@@UEBA?AV?$tuple@UTensor@at@@U12@@std@@AEBUTensor@2@V?$ArrayRef@_J@2@111_N@Z
?max_pool2d_backward@Type@at@@UEBA?AUTensor@2@AEBU32@0V?$ArrayRef@_J@2@111_N0@Z
?max_pool2d_backward_out@Type@at@@UEBAAEAUTensor@2@AEAU32@AEBU32@1V?$ArrayRef@_J@2@222_N1@Z
?max_pool2d_forward@Type@at@@UEBA?AV?$tuple@UTensor@at@@U12@@std@@AEBUTensor@2@V?$ArrayRef@_J@2@111_N@Z
?max_pool2d_forward_out@Type@at@@UEBA?AV?$tuple@AEAUTensor@at@@AEAU12@@std@@AEAUTensor@2@0AEBU52@V?$ArrayRef@_J@2@222_N@Z
?max_pool2d_out@Type@at@@UEBA?AV?$tuple@AEAUTensor@at@@AEAU12@@std@@AEAUTensor@2@0AEBU52@V?$ArrayRef@_J@2@222_N@Z
?max_pool3d@Type@at@@UEBA?AV?$tuple@UTensor@at@@U12@@std@@AEBUTensor@2@V?$ArrayRef@_J@2@111_N@Z
?max_pool3d_backward@Type@at@@UEBA?AUTensor@2@AEBU32@0V?$ArrayRef@_J@2@111_N0@Z
?max_pool3d_backward_out@Type@at@@UEBAAEAUTensor@2@AEAU32@AEBU32@1V?$ArrayRef@_J@2@222_N1@Z
?max_pool3d_forward@Type@at@@UEBA?AV?$tuple@UTensor@at@@U12@@std@@AEBUTensor@2@V?$ArrayRef@_J@2@111_N@Z
?max_pool3d_forward_out@Type@at@@UEBA?AV?$tuple@AEAUTensor@at@@AEAU12@@std@@AEAUTensor@2@0AEBU52@V?$ArrayRef@_J@2@222_N@Z
?max_pool3d_out@Type@at@@UEBA?AV?$tuple@AEAUTensor@at@@AEAU12@@std@@AEAUTensor@2@0AEBU52@V?$ArrayRef@_J@2@222_N@Z
?max_unpool2d@Type@at@@UEBA?AUTensor@2@AEBU32@0V?$ArrayRef@_J@2@@Z
?max_unpool2d_backward@Type@at@@UEBA?AUTensor@2@AEBU32@00V?$ArrayRef@_J@2@@Z
?max_unpool2d_backward_out@Type@at@@UEBAAEAUTensor@2@AEAU32@AEBU32@11V?$ArrayRef@_J@2@@Z
?max_unpool2d_forward@Type@at@@UEBA?AUTensor@2@AEBU32@0V?$ArrayRef@_J@2@@Z
?max_unpool2d_forward_out@Type@at@@UEBAAEAUTensor@2@AEAU32@AEBU32@1V?$ArrayRef@_J@2@@Z
?max_unpool2d_out@Type@at@@UEBAAEAUTensor@2@AEAU32@AEBU32@1V?$ArrayRef@_J@2@@Z
?max_unpool3d@Type@at@@UEBA?AUTensor@2@AEBU32@0V?$ArrayRef@_J@2@11@Z
?max_unpool3d_backward@Type@at@@UEBA?AUTensor@2@AEBU32@00V?$ArrayRef@_J@2@11@Z
?max_unpool3d_backward_out@Type@at@@UEBAAEAUTensor@2@AEAU32@AEBU32@11V?$ArrayRef@_J@2@22@Z
?max_unpool3d_forward@Type@at@@UEBA?AUTensor@2@AEBU32@0V?$ArrayRef@_J@2@11@Z
?max_unpool3d_forward_out@Type@at@@UEBAAEAUTensor@2@AEAU32@AEBU32@1V?$ArrayRef@_J@2@22@Z
?max_unpool3d_out@Type@at@@UEBAAEAUTensor@2@AEAU32@AEBU32@1V?$ArrayRef@_J@2@22@Z
?mean@Type@at@@UEBA?AUTensor@2@AEBU32@_J_N@Z
?mean@Type@at@@UEBA?AVScalar@2@AEBUTensor@2@@Z
?mean_out@Type@at@@UEBAAEAUTensor@2@AEAU32@AEBU32@_J_N@Z
?median@Type@at@@UEBA?AV?$tuple@UTensor@at@@U12@@std@@AEBUTensor@2@_J_N@Z
?median@Type@at@@UEBA?AVScalar@2@AEBUTensor@2@@Z
?median_out@Type@at@@UEBA?AV?$tuple@AEAUTensor@at@@AEAU12@@std@@AEAUTensor@2@0AEBU52@_J_N@Z
?min@Type@at@@QEBA?AUTensor@2@AEBU32@0@Z
?min@Type@at@@UEBA?AV?$tuple@UTensor@at@@U12@@std@@AEBUTensor@2@_J_N@Z
?min@Type@at@@UEBA?AVScalar@2@AEBUTensor@2@@Z
?min_out@Type@at@@QEBAAEAUTensor@2@AEAU32@AEBU32@1@Z
?min_out@Type@at@@UEBA?AV?$tuple@AEAUTensor@at@@AEAU12@@std@@AEAUTensor@2@0AEBU52@_J_N@Z
?mm@Type@at@@UEBA?AUTensor@2@AEBU32@0@Z
?mm_out@Type@at@@UEBAAEAUTensor@2@AEAU32@AEBU32@1@Z
?mode@Type@at@@UEBA?AV?$tuple@UTensor@at@@U12@@std@@AEBUTensor@2@_J_N@Z
?mode_out@Type@at@@UEBA?AV?$tuple@AEAUTensor@at@@AEAU12@@std@@AEAUTensor@2@0AEBU52@_J_N@Z
?mse_loss@Type@at@@UEBA?AUTensor@2@AEBU32@0_N1@Z
?mse_loss_backward@Type@at@@UEBA?AUTensor@2@AEBU32@00_N1@Z
?mse_loss_backward_out@Type@at@@UEBAAEAUTensor@2@AEAU32@AEBU32@11_N2@Z
?mse_loss_forward@Type@at@@UEBA?AUTensor@2@AEBU32@0_N1@Z
?mse_loss_forward_out@Type@at@@UEBAAEAUTensor@2@AEAU32@AEBU32@1_N2@Z
?mse_loss_out@Type@at@@UEBAAEAUTensor@2@AEAU32@AEBU32@1_N2@Z
?mul@Type@at@@QEBA?AUTensor@2@AEBU32@0@Z
?mul@Type@at@@UEBA?AUTensor@2@AEBU32@VScalar@2@@Z
?mul_out@Type@at@@QEBAAEAUTensor@2@AEAU32@AEBU32@1@Z
?mul_out@Type@at@@UEBAAEAUTensor@2@AEAU32@AEBU32@VScalar@2@@Z
?multi_margin_loss@Type@at@@UEBA?AUTensor@2@AEBU32@0VScalar@2@10_N@Z
?multi_margin_loss_backward@Type@at@@UEBA?AUTensor@2@AEBU32@0VScalar@2@10_N@Z
?multi_margin_loss_backward_out@Type@at@@UEBAAEAUTensor@2@AEAU32@AEBU32@1VScalar@2@21_N@Z
?multi_margin_loss_forward@Type@at@@UEBA?AUTensor@2@AEBU32@0VScalar@2@10_N@Z
?multi_margin_loss_forward_out@Type@at@@UEBAAEAUTensor@2@AEAU32@AEBU32@1VScalar@2@21_N@Z
?multi_margin_loss_out@Type@at@@UEBAAEAUTensor@2@AEAU32@AEBU32@1VScalar@2@21_N@Z
?multilabel_margin_loss@Type@at@@UEBA?AUTensor@2@AEBU32@0_N@Z
?multilabel_margin_loss_backward@Type@at@@UEBA?AUTensor@2@AEBU32@0_N0@Z
?multilabel_margin_loss_backward_out@Type@at@@UEBAAEAUTensor@2@AEAU32@AEBU32@1_N1@Z
?multilabel_margin_loss_forward@Type@at@@UEBA?AUTensor@2@AEBU32@0_N0@Z
?multilabel_margin_loss_forward_out@Type@at@@UEBAAEAUTensor@2@AEAU32@AEBU32@1_N1@Z
?multilabel_margin_loss_out@Type@at@@UEBAAEAUTensor@2@AEAU32@AEBU32@1_N@Z
?multinomial@Type@at@@UEBA?AUTensor@2@AEBU32@_J_NPEAUGenerator@2@@Z
?multinomial_out@Type@at@@UEBAAEAUTensor@2@AEAU32@AEBU32@_J_NPEAUGenerator@2@@Z
?mv@Type@at@@UEBA?AUTensor@2@AEBU32@0@Z
?mv_out@Type@at@@UEBAAEAUTensor@2@AEAU32@AEBU32@1@Z
?ne@Type@at@@QEBA?AUTensor@2@AEBU32@0@Z
?ne@Type@at@@UEBA?AUTensor@2@AEBU32@VScalar@2@@Z
?ne_out@Type@at@@QEBAAEAUTensor@2@AEAU32@AEBU32@1@Z
?ne_out@Type@at@@UEBAAEAUTensor@2@AEAU32@AEBU32@VScalar@2@@Z
?neg@Type@at@@UEBA?AUTensor@2@AEBU32@@Z
?neg_out@Type@at@@UEBAAEAUTensor@2@AEAU32@AEBU32@@Z
?nll_loss2d@Type@at@@UEBA?AUTensor@2@AEBU32@00_N_J1@Z
?nll_loss2d_backward@Type@at@@UEBA?AUTensor@2@AEBU32@000_N_J10@Z
?nll_loss2d_backward_out@Type@at@@UEBAAEAUTensor@2@AEAU32@AEBU32@111_N_J21@Z
?nll_loss2d_forward@Type@at@@UEBA?AUTensor@2@AEBU32@00_N_J10@Z
?nll_loss2d_forward_out@Type@at@@UEBAAEAUTensor@2@AEAU32@AEBU32@11_N_J21@Z
?nll_loss2d_out@Type@at@@UEBAAEAUTensor@2@AEAU32@AEBU32@11_N_J2@Z
?nll_loss@Type@at@@UEBA?AUTensor@2@AEBU32@00_N_J1@Z
?nll_loss_backward@Type@at@@UEBA?AUTensor@2@AEBU32@000_N_J10@Z
?nll_loss_backward_out@Type@at@@UEBAAEAUTensor@2@AEAU32@AEBU32@111_N_J21@Z
?nll_loss_forward@Type@at@@UEBA?AUTensor@2@AEBU32@00_N_J10@Z
?nll_loss_forward_out@Type@at@@UEBAAEAUTensor@2@AEAU32@AEBU32@11_N_J21@Z
?nll_loss_out@Type@at@@UEBAAEAUTensor@2@AEAU32@AEBU32@11_N_J2@Z
?nonzero@Type@at@@UEBA?AUTensor@2@AEBU32@@Z
?nonzero_out@Type@at@@UEBAAEAUTensor@2@AEAU32@AEBU32@@Z
?norm@Type@at@@UEBA?AUTensor@2@AEBU32@VScalar@2@_J_N@Z
?norm@Type@at@@UEBA?AVScalar@2@AEBUTensor@2@V32@@Z
?norm_out@Type@at@@UEBAAEAUTensor@2@AEAU32@AEBU32@VScalar@2@_J_N@Z
?normal@Type@at@@UEBA?AUTensor@2@AEBU32@0PEAUGenerator@2@@Z
?normal@Type@at@@UEBA?AUTensor@2@AEBU32@NPEAUGenerator@2@@Z
?normal@Type@at@@UEBA?AUTensor@2@NAEBU32@PEAUGenerator@2@@Z
?normal_out@Type@at@@UEBAAEAUTensor@2@AEAU32@AEBU32@1PEAUGenerator@2@@Z
?normal_out@Type@at@@UEBAAEAUTensor@2@AEAU32@AEBU32@NPEAUGenerator@2@@Z
?normal_out@Type@at@@UEBAAEAUTensor@2@AEAU32@NAEBU32@PEAUGenerator@2@@Z
?numel@Type@at@@UEBA_JAEBUTensor@2@@Z
?ones@Type@at@@UEBA?AUTensor@2@V?$ArrayRef@_J@2@@Z
?ones_like@Type@at@@UEBA?AUTensor@2@AEBU32@@Z
?ones_like_out@Type@at@@UEBAAEAUTensor@2@AEAU32@AEBU32@@Z
?ones_out@Type@at@@UEBAAEAUTensor@2@AEAU32@V?$ArrayRef@_J@2@@Z
?orgqr@Type@at@@UEBA?AUTensor@2@AEBU32@0@Z
?orgqr_out@Type@at@@UEBAAEAUTensor@2@AEAU32@AEBU32@1@Z
?ormqr@Type@at@@UEBA?AUTensor@2@AEBU32@00_N1@Z
?ormqr_out@Type@at@@UEBAAEAUTensor@2@AEAU32@AEBU32@11_N2@Z
?permute@Type@at@@UEBA?AUTensor@2@U32@V?$ArrayRef@_J@2@@Z
?potrf@Type@at@@UEBA?AUTensor@2@AEBU32@_N@Z
?potrf_out@Type@at@@UEBAAEAUTensor@2@AEAU32@AEBU32@_N@Z
?potri@Type@at@@UEBA?AUTensor@2@AEBU32@_N@Z
?potri_out@Type@at@@UEBAAEAUTensor@2@AEAU32@AEBU32@_N@Z
?potrs@Type@at@@UEBA?AUTensor@2@AEBU32@0_N@Z
?potrs_out@Type@at@@UEBAAEAUTensor@2@AEAU32@AEBU32@1_N@Z
?pow@Type@at@@QEBA?AUTensor@2@AEBU32@0@Z
?pow@Type@at@@UEBA?AUTensor@2@AEBU32@VScalar@2@@Z
?pow_out@Type@at@@QEBAAEAUTensor@2@AEAU32@AEBU32@1@Z
?pow_out@Type@at@@UEBAAEAUTensor@2@AEAU32@AEBU32@VScalar@2@@Z
?prelu@Type@at@@UEBA?AUTensor@2@AEBU32@0@Z
?prelu_backward@Type@at@@UEBA?AV?$tuple@UTensor@at@@U12@@std@@AEBUTensor@2@00V?$array@_N$01@4@@Z
?prelu_backward_out@Type@at@@UEBA?AV?$tuple@AEAUTensor@at@@AEAU12@@std@@AEAUTensor@2@0AEBU52@11@Z
?prelu_forward@Type@at@@UEBA?AUTensor@2@AEBU32@0@Z
?prelu_forward_out@Type@at@@UEBAAEAUTensor@2@AEAU32@AEBU32@1@Z
?prelu_out@Type@at@@UEBAAEAUTensor@2@AEAU32@AEBU32@1@Z
?print@at@@YAAEAV?$basic_ostream@DU?$char_traits@D@std@@@std@@AEAV23@AEBUTensor@1@_J@Z
?prod@Type@at@@UEBA?AUTensor@2@AEBU32@_J_N@Z
?prod@Type@at@@UEBA?AVScalar@2@AEBUTensor@2@@Z
?prod_out@Type@at@@UEBAAEAUTensor@2@AEAU32@AEBU32@_J_N@Z
?pstrf@Type@at@@UEBA?AV?$tuple@UTensor@at@@U12@@std@@AEBUTensor@2@_NVScalar@2@@Z
?pstrf_out@Type@at@@UEBA?AV?$tuple@AEAUTensor@at@@AEAU12@@std@@AEAUTensor@2@0AEBU52@_NVScalar@2@@Z
?qr@Type@at@@UEBA?AV?$tuple@UTensor@at@@U12@@std@@AEBUTensor@2@@Z
?qr_out@Type@at@@UEBA?AV?$tuple@AEAUTensor@at@@AEAU12@@std@@AEAUTensor@2@0AEBU52@@Z
?rand@Type@at@@UEBA?AUTensor@2@V?$ArrayRef@_J@2@PEAUGenerator@2@@Z
?rand_out@Type@at@@UEBAAEAUTensor@2@AEAU32@V?$ArrayRef@_J@2@PEAUGenerator@2@@Z
?randn@Type@at@@UEBA?AUTensor@2@V?$ArrayRef@_J@2@PEAUGenerator@2@@Z
?randn_out@Type@at@@UEBAAEAUTensor@2@AEAU32@V?$ArrayRef@_J@2@PEAUGenerator@2@@Z
?randperm@Type@at@@UEBA?AUTensor@2@_JPEAUGenerator@2@@Z
?randperm_out@Type@at@@UEBAAEAUTensor@2@AEAU32@_JPEAUGenerator@2@@Z
?range@Type@at@@UEBA?AUTensor@2@VScalar@2@00@Z
?range_out@Type@at@@UEBAAEAUTensor@2@AEAU32@VScalar@2@11@Z
?reciprocal@Type@at@@UEBA?AUTensor@2@AEBU32@@Z
?reciprocal_out@Type@at@@UEBAAEAUTensor@2@AEAU32@AEBU32@@Z
?registerAll@Type@at@@SAXPEAVContext@2@@Z
?remainder@Type@at@@QEBA?AUTensor@2@AEBU32@0@Z
?remainder@Type@at@@UEBA?AUTensor@2@AEBU32@VScalar@2@@Z
?remainder_out@Type@at@@QEBAAEAUTensor@2@AEAU32@AEBU32@1@Z
?remainder_out@Type@at@@UEBAAEAUTensor@2@AEAU32@AEBU32@VScalar@2@@Z
?renorm@Type@at@@UEBA?AUTensor@2@AEBU32@VScalar@2@_J1@Z
?renorm_out@Type@at@@UEBAAEAUTensor@2@AEAU32@AEBU32@VScalar@2@_J2@Z
?round@Type@at@@UEBA?AUTensor@2@AEBU32@@Z
?round_out@Type@at@@UEBAAEAUTensor@2@AEAU32@AEBU32@@Z
?rrelu@Type@at@@UEBA?AUTensor@2@AEBU32@VScalar@2@1_N2PEAUGenerator@2@@Z
?rrelu_backward@Type@at@@UEBA?AUTensor@2@AEBU32@0VScalar@2@1_N0@Z
?rrelu_backward_out@Type@at@@UEBAAEAUTensor@2@AEAU32@AEBU32@1VScalar@2@2_N1@Z
?rrelu_forward@Type@at@@UEBA?AUTensor@2@AEBU32@VScalar@2@1_N2PEAUGenerator@2@0@Z
?rrelu_forward_out@Type@at@@UEBAAEAUTensor@2@AEAU32@AEBU32@VScalar@2@2_N3PEAUGenerator@2@1@Z
?rrelu_out@Type@at@@UEBAAEAUTensor@2@AEAU32@AEBU32@VScalar@2@2_N3PEAUGenerator@2@@Z
?rsqrt@Type@at@@UEBA?AUTensor@2@AEBU32@@Z
?rsqrt_out@Type@at@@UEBAAEAUTensor@2@AEAU32@AEBU32@@Z
?runtime_error@at@@YAXPEBDZZ
?s___and__@Type@at@@UEBA?AUTensor@2@AEBU32@0@Z
?s___and___out@Type@at@@UEBAAEAUTensor@2@AEAU32@AEBU32@1@Z
?s___iand__@Type@at@@UEBAAEAUTensor@2@AEAU32@AEBU32@@Z
?s___ilshift__@Type@at@@UEBAAEAUTensor@2@AEAU32@AEBU32@@Z
?s___ior__@Type@at@@UEBAAEAUTensor@2@AEAU32@AEBU32@@Z
?s___irshift__@Type@at@@UEBAAEAUTensor@2@AEAU32@AEBU32@@Z
?s___ixor__@Type@at@@UEBAAEAUTensor@2@AEAU32@AEBU32@@Z
?s___lshift__@Type@at@@UEBA?AUTensor@2@AEBU32@0@Z
?s___lshift___out@Type@at@@UEBAAEAUTensor@2@AEAU32@AEBU32@1@Z
?s___or__@Type@at@@UEBA?AUTensor@2@AEBU32@0@Z
?s___or___out@Type@at@@UEBAAEAUTensor@2@AEAU32@AEBU32@1@Z
?s___rshift__@Type@at@@UEBA?AUTensor@2@AEBU32@0@Z
?s___rshift___out@Type@at@@UEBAAEAUTensor@2@AEAU32@AEBU32@1@Z
?s___xor__@Type@at@@UEBA?AUTensor@2@AEBU32@0@Z
?s___xor___out@Type@at@@UEBAAEAUTensor@2@AEAU32@AEBU32@1@Z
?s_add@Type@at@@UEBA?AUTensor@2@AEBU32@0VScalar@2@@Z
?s_add_out@Type@at@@UEBAAEAUTensor@2@AEAU32@AEBU32@1VScalar@2@@Z
?s_addbmm@Type@at@@UEBA?AUTensor@2@AEBU32@00VScalar@2@1@Z
?s_addbmm_out@Type@at@@UEBAAEAUTensor@2@AEAU32@AEBU32@11VScalar@2@2@Z
?s_addcdiv@Type@at@@UEBA?AUTensor@2@AEBU32@00VScalar@2@@Z
?s_addcdiv_out@Type@at@@UEBAAEAUTensor@2@AEAU32@AEBU32@11VScalar@2@@Z
?s_addcmul@Type@at@@UEBA?AUTensor@2@AEBU32@00VScalar@2@@Z
?s_addcmul_out@Type@at@@UEBAAEAUTensor@2@AEAU32@AEBU32@11VScalar@2@@Z
?s_addmm@Type@at@@UEBA?AUTensor@2@AEBU32@00VScalar@2@1@Z
?s_addmm_out@Type@at@@UEBAAEAUTensor@2@AEAU32@AEBU32@11VScalar@2@2@Z
?s_addmv@Type@at@@UEBA?AUTensor@2@AEBU32@00VScalar@2@1@Z
?s_addmv_out@Type@at@@UEBAAEAUTensor@2@AEAU32@AEBU32@11VScalar@2@2@Z
?s_addr@Type@at@@UEBA?AUTensor@2@AEBU32@00VScalar@2@1@Z
?s_addr_out@Type@at@@UEBAAEAUTensor@2@AEAU32@AEBU32@11VScalar@2@2@Z
?s_atan2@Type@at@@UEBA?AUTensor@2@AEBU32@0@Z
?s_atan2_out@Type@at@@UEBAAEAUTensor@2@AEAU32@AEBU32@1@Z
?s_baddbmm@Type@at@@UEBA?AUTensor@2@AEBU32@00VScalar@2@1@Z
?s_baddbmm_out@Type@at@@UEBAAEAUTensor@2@AEAU32@AEBU32@11VScalar@2@2@Z
?s_dist@Type@at@@UEBA?AVScalar@2@AEBUTensor@2@0V32@@Z
?s_div@Type@at@@UEBA?AUTensor@2@AEBU32@0@Z
?s_div_out@Type@at@@UEBAAEAUTensor@2@AEAU32@AEBU32@1@Z
?s_eq@Type@at@@UEBA?AUTensor@2@AEBU32@0@Z
?s_eq_out@Type@at@@UEBAAEAUTensor@2@AEAU32@AEBU32@1@Z
?s_fmod@Type@at@@UEBA?AUTensor@2@AEBU32@0@Z
?s_fmod_out@Type@at@@UEBAAEAUTensor@2@AEAU32@AEBU32@1@Z
?s_ge@Type@at@@UEBA?AUTensor@2@AEBU32@0@Z
?s_ge_out@Type@at@@UEBAAEAUTensor@2@AEAU32@AEBU32@1@Z
?s_gt@Type@at@@UEBA?AUTensor@2@AEBU32@0@Z
?s_gt_out@Type@at@@UEBAAEAUTensor@2@AEAU32@AEBU32@1@Z
?s_le@Type@at@@UEBA?AUTensor@2@AEBU32@0@Z
?s_le_out@Type@at@@UEBAAEAUTensor@2@AEAU32@AEBU32@1@Z
?s_lerp@Type@at@@UEBA?AUTensor@2@AEBU32@0VScalar@2@@Z
?s_lerp_out@Type@at@@UEBAAEAUTensor@2@AEAU32@AEBU32@1VScalar@2@@Z
?s_lt@Type@at@@UEBA?AUTensor@2@AEBU32@0@Z
?s_lt_out@Type@at@@UEBAAEAUTensor@2@AEAU32@AEBU32@1@Z
?s_m_add_@Type@at@@UEBAAEAUTensor@2@AEAU32@AEBU32@VScalar@2@@Z
?s_m_addcdiv_@Type@at@@UEBAAEAUTensor@2@AEAU32@AEBU32@1VScalar@2@@Z
?s_m_addcmul_@Type@at@@UEBAAEAUTensor@2@AEAU32@AEBU32@1VScalar@2@@Z
?s_m_atan2_@Type@at@@UEBAAEAUTensor@2@AEAU32@AEBU32@@Z
?s_m_div_@Type@at@@UEBAAEAUTensor@2@AEAU32@AEBU32@@Z
?s_m_eq_@Type@at@@UEBAAEAUTensor@2@AEAU32@AEBU32@@Z
?s_m_fmod_@Type@at@@UEBAAEAUTensor@2@AEAU32@AEBU32@@Z
?s_m_ge_@Type@at@@UEBAAEAUTensor@2@AEAU32@AEBU32@@Z
?s_m_gt_@Type@at@@UEBAAEAUTensor@2@AEAU32@AEBU32@@Z
?s_m_le_@Type@at@@UEBAAEAUTensor@2@AEAU32@AEBU32@@Z
?s_m_lerp_@Type@at@@UEBAAEAUTensor@2@AEAU32@AEBU32@VScalar@2@@Z
?s_m_lt_@Type@at@@UEBAAEAUTensor@2@AEAU32@AEBU32@@Z
?s_m_masked_fill_@Type@at@@UEBAAEAUTensor@2@AEAU32@AEBU32@VScalar@2@@Z
?s_m_masked_scatter_@Type@at@@UEBAAEAUTensor@2@AEAU32@AEBU32@1@Z
?s_m_mul_@Type@at@@UEBAAEAUTensor@2@AEAU32@AEBU32@@Z
?s_m_ne_@Type@at@@UEBAAEAUTensor@2@AEAU32@AEBU32@@Z
?s_m_pow_@Type@at@@UEBAAEAUTensor@2@AEAU32@AEBU32@@Z
?s_m_remainder_@Type@at@@UEBAAEAUTensor@2@AEAU32@AEBU32@@Z
?s_m_sub_@Type@at@@UEBAAEAUTensor@2@AEAU32@AEBU32@VScalar@2@@Z
?s_masked_select@Type@at@@UEBA?AUTensor@2@AEBU32@0@Z
?s_masked_select_out@Type@at@@UEBAAEAUTensor@2@AEAU32@AEBU32@1@Z
?s_max@Type@at@@UEBA?AUTensor@2@AEBU32@0@Z
?s_max_out@Type@at@@UEBAAEAUTensor@2@AEAU32@AEBU32@1@Z
?s_min@Type@at@@UEBA?AUTensor@2@AEBU32@0@Z
?s_min_out@Type@at@@UEBAAEAUTensor@2@AEAU32@AEBU32@1@Z
?s_mul@Type@at@@UEBA?AUTensor@2@AEBU32@0@Z
?s_mul_out@Type@at@@UEBAAEAUTensor@2@AEAU32@AEBU32@1@Z
?s_ne@Type@at@@UEBA?AUTensor@2@AEBU32@0@Z
?s_ne_out@Type@at@@UEBAAEAUTensor@2@AEAU32@AEBU32@1@Z
?s_pow@Type@at@@UEBA?AUTensor@2@AEBU32@0@Z
?s_pow_out@Type@at@@UEBAAEAUTensor@2@AEAU32@AEBU32@1@Z
?s_remainder@Type@at@@UEBA?AUTensor@2@AEBU32@0@Z
?s_remainder_out@Type@at@@UEBAAEAUTensor@2@AEAU32@AEBU32@1@Z
?s_sub@Type@at@@UEBA?AUTensor@2@AEBU32@0VScalar@2@@Z
?s_sub_out@Type@at@@UEBAAEAUTensor@2@AEAU32@AEBU32@1VScalar@2@@Z
?scalarTensor@Type@at@@QEBA?AUTensor@2@VScalar@2@@Z
?select@Type@at@@UEBA?AUTensor@2@AEBU32@_J1@Z
?select_out@Type@at@@UEBAAEAUTensor@2@AEAU32@AEBU32@_J2@Z
?sigmoid@Type@at@@UEBA?AUTensor@2@AEBU32@@Z
?sigmoid_out@Type@at@@UEBAAEAUTensor@2@AEAU32@AEBU32@@Z
?sign@Type@at@@UEBA?AUTensor@2@AEBU32@@Z
?sign_out@Type@at@@UEBAAEAUTensor@2@AEAU32@AEBU32@@Z
?sin@Type@at@@UEBA?AUTensor@2@AEBU32@@Z
?sin_out@Type@at@@UEBAAEAUTensor@2@AEAU32@AEBU32@@Z
?singleton@UndefinedTensor@at@@SAPEAU12@XZ
?sinh@Type@at@@UEBA?AUTensor@2@AEBU32@@Z
?sinh_out@Type@at@@UEBAAEAUTensor@2@AEAU32@AEBU32@@Z
?sizes@UndefinedTensor@at@@UEBA?AV?$ArrayRef@_J@2@XZ
?smooth_l1_loss@Type@at@@UEBA?AUTensor@2@AEBU32@0_N1@Z
?smooth_l1_loss_backward@Type@at@@UEBA?AUTensor@2@AEBU32@00_N1@Z
?smooth_l1_loss_backward_out@Type@at@@UEBAAEAUTensor@2@AEAU32@AEBU32@11_N2@Z
?smooth_l1_loss_forward@Type@at@@UEBA?AUTensor@2@AEBU32@0_N1@Z
?smooth_l1_loss_forward_out@Type@at@@UEBAAEAUTensor@2@AEAU32@AEBU32@1_N2@Z
?smooth_l1_loss_out@Type@at@@UEBAAEAUTensor@2@AEAU32@AEBU32@1_N2@Z
?soft_margin_loss@Type@at@@UEBA?AUTensor@2@AEBU32@0_N@Z
?soft_margin_loss_backward@Type@at@@UEBA?AUTensor@2@AEBU32@0_N@Z
?soft_margin_loss_backward_out@Type@at@@UEBAAEAUTensor@2@AEAU32@AEBU32@1_N@Z
?soft_margin_loss_forward@Type@at@@UEBA?AUTensor@2@AEBU32@0_N@Z
?soft_margin_loss_forward_out@Type@at@@UEBAAEAUTensor@2@AEAU32@AEBU32@1_N@Z
?soft_margin_loss_out@Type@at@@UEBAAEAUTensor@2@AEAU32@AEBU32@1_N@Z
?softmax@Type@at@@UEBA?AUTensor@2@AEBU32@_J@Z
?softmax_backward@Type@at@@UEBA?AUTensor@2@AEBU32@0_J0@Z
?softmax_backward_out@Type@at@@UEBAAEAUTensor@2@AEAU32@AEBU32@1_J1@Z
?softmax_forward@Type@at@@UEBA?AUTensor@2@AEBU32@_J@Z
?softmax_forward_out@Type@at@@UEBAAEAUTensor@2@AEAU32@AEBU32@_J@Z
?softmax_out@Type@at@@UEBAAEAUTensor@2@AEAU32@AEBU32@_J@Z
?softplus@Type@at@@UEBA?AUTensor@2@AEBU32@VScalar@2@1@Z
?softplus_backward@Type@at@@UEBA?AUTensor@2@AEBU32@0VScalar@2@10@Z
?softplus_backward_out@Type@at@@UEBAAEAUTensor@2@AEAU32@AEBU32@1VScalar@2@21@Z
?softplus_forward@Type@at@@UEBA?AUTensor@2@AEBU32@VScalar@2@1@Z
?softplus_forward_out@Type@at@@UEBAAEAUTensor@2@AEAU32@AEBU32@VScalar@2@2@Z
?softplus_out@Type@at@@UEBAAEAUTensor@2@AEAU32@AEBU32@VScalar@2@2@Z
?softshrink@Type@at@@UEBA?AUTensor@2@AEBU32@VScalar@2@@Z
?softshrink_backward@Type@at@@UEBA?AUTensor@2@AEBU32@0VScalar@2@@Z
?softshrink_backward_out@Type@at@@UEBAAEAUTensor@2@AEAU32@AEBU32@1VScalar@2@@Z
?softshrink_forward@Type@at@@UEBA?AUTensor@2@AEBU32@VScalar@2@@Z
?softshrink_forward_out@Type@at@@UEBAAEAUTensor@2@AEAU32@AEBU32@VScalar@2@@Z
?softshrink_out@Type@at@@UEBAAEAUTensor@2@AEAU32@AEBU32@VScalar@2@@Z
?sort@Type@at@@UEBA?AV?$tuple@UTensor@at@@U12@@std@@AEBUTensor@2@_J_N@Z
?sort_out@Type@at@@UEBA?AV?$tuple@AEAUTensor@at@@AEAU12@@std@@AEAUTensor@2@0AEBU52@_J_N@Z
?split@Type@at@@UEBA?AV?$vector@UTensor@at@@V?$allocator@UTensor@at@@@std@@@std@@UTensor@2@_J1@Z
?sqrt@Type@at@@UEBA?AUTensor@2@AEBU32@@Z
?sqrt_out@Type@at@@UEBAAEAUTensor@2@AEAU32@AEBU32@@Z
?squeeze@Type@at@@UEBA?AUTensor@2@AEBU32@@Z
?squeeze@Type@at@@UEBA?AUTensor@2@AEBU32@_J@Z
?squeeze_out@Type@at@@UEBAAEAUTensor@2@AEAU32@AEBU32@@Z
?squeeze_out@Type@at@@UEBAAEAUTensor@2@AEAU32@AEBU32@_J@Z
?std@Type@at@@UEBA?AUTensor@2@AEBU32@_J_N2@Z
?std@Type@at@@UEBA?AVScalar@2@AEBUTensor@2@_N@Z
?std_out@Type@at@@UEBAAEAUTensor@2@AEAU32@AEBU32@_J_N3@Z
?strides@UndefinedTensor@at@@UEBA?AV?$ArrayRef@_J@2@XZ
?sub@Type@at@@QEBA?AUTensor@2@AEBU32@0VScalar@2@@Z
?sub@Type@at@@UEBA?AUTensor@2@AEBU32@VScalar@2@1@Z
?sub_out@Type@at@@QEBAAEAUTensor@2@AEAU32@AEBU32@1VScalar@2@@Z
?sub_out@Type@at@@UEBAAEAUTensor@2@AEAU32@AEBU32@VScalar@2@2@Z
?sum@Type@at@@UEBA?AUTensor@2@AEBU32@_J_N@Z
?sum@Type@at@@UEBA?AVScalar@2@AEBUTensor@2@@Z
?sum_out@Type@at@@UEBAAEAUTensor@2@AEAU32@AEBU32@_J_N@Z
?svd@Type@at@@UEBA?AV?$tuple@UTensor@at@@U12@U12@@std@@AEBUTensor@2@_N@Z
?svd_out@Type@at@@UEBA?AV?$tuple@AEAUTensor@at@@AEAU12@AEAU12@@std@@AEAUTensor@2@00AEBU52@_N@Z
?symeig@Type@at@@UEBA?AV?$tuple@UTensor@at@@U12@@std@@AEBUTensor@2@_N1@Z
?symeig_out@Type@at@@UEBA?AV?$tuple@AEAUTensor@at@@AEAU12@@std@@AEAUTensor@2@0AEBU52@_N2@Z
?t@Type@at@@UEBA?AUTensor@2@AEBU32@@Z
?take@Type@at@@UEBA?AUTensor@2@AEBU32@0@Z
?take_out@Type@at@@UEBAAEAUTensor@2@AEAU32@AEBU32@1@Z
?tan@Type@at@@UEBA?AUTensor@2@AEBU32@@Z
?tan_out@Type@at@@UEBAAEAUTensor@2@AEAU32@AEBU32@@Z
?tanh@Type@at@@UEBA?AUTensor@2@AEBU32@@Z
?tanh_out@Type@at@@UEBAAEAUTensor@2@AEAU32@AEBU32@@Z
?tensor@Type@at@@UEBA?AUTensor@2@AEAUStorage@2@_JV?$ArrayRef@_J@2@2@Z
?tensor@Type@at@@UEBA?AUTensor@2@V?$ArrayRef@_J@2@0@Z
?tensor@Type@at@@UEBA?AUTensor@2@V?$ArrayRef@_J@2@@Z
?tensor@Type@at@@UEBA?AUTensor@2@XZ
?tensorFromBlob@Type@at@@QEAA?AUTensor@2@PEAXV?$ArrayRef@_J@2@1AEBV?$function@$$A6AXPEAX@Z@std@@@Z
?tensorFromBlob@Type@at@@QEAA?AUTensor@2@PEAXV?$ArrayRef@_J@2@AEBV?$function@$$A6AXPEAX@Z@std@@@Z
?threshold@Type@at@@UEBA?AUTensor@2@AEBU32@VScalar@2@1_N@Z
?threshold_backward@Type@at@@UEBA?AUTensor@2@AEBU32@0VScalar@2@1@Z
?threshold_backward_out@Type@at@@UEBAAEAUTensor@2@AEAU32@AEBU32@1VScalar@2@2@Z
?threshold_forward@Type@at@@UEBA?AUTensor@2@AEBU32@VScalar@2@1_N@Z
?threshold_forward_out@Type@at@@UEBAAEAUTensor@2@AEAU32@AEBU32@VScalar@2@2_N@Z
?threshold_out@Type@at@@UEBAAEAUTensor@2@AEAU32@AEBU32@VScalar@2@2_N@Z
?toBackend@Type@at@@UEBAAEAU12@W4Backend@2@@Z
?toByte@Scalar@at@@QEBAEXZ
?toChar@Scalar@at@@QEBACXZ
?toDLPack@at@@YAPEAUDLManagedTensor@@AEBUTensor@1@@Z
?toDouble@Scalar@at@@QEBANXZ
?toFloat@Scalar@at@@QEBAMXZ
?toHalf@Scalar@at@@QEBA?AUHalf@2@XZ
?toInt@Scalar@at@@QEBAHXZ
?toLong@Scalar@at@@QEBA_JXZ
?topk@Type@at@@UEBA?AV?$tuple@UTensor@at@@U12@@std@@AEBUTensor@2@_J1_N2@Z
?topk_out@Type@at@@UEBA?AV?$tuple@AEAUTensor@at@@AEAU12@@std@@AEAUTensor@2@0AEBU52@_J2_N3@Z
?toScalarType@at@@YA?AW4ScalarType@1@AEBUDLDataType@@@Z
?toScalarType@Type@at@@UEBAAEAU12@W4ScalarType@2@@Z
?toShort@Scalar@at@@QEBAFXZ
?toString@UndefinedTensor@at@@UEBAPEBDXZ
?toTensor@Scalar@at@@QEBA?AUTensor@2@XZ
?trace@Type@at@@UEBA?AVScalar@2@AEBUTensor@2@@Z
?transpose@Type@at@@UEBA?AUTensor@2@AEBU32@_J1@Z
?tril@Type@at@@UEBA?AUTensor@2@AEBU32@_J@Z
?tril_out@Type@at@@UEBAAEAUTensor@2@AEAU32@AEBU32@_J@Z
?triu@Type@at@@UEBA?AUTensor@2@AEBU32@_J@Z
?triu_out@Type@at@@UEBAAEAUTensor@2@AEAU32@AEBU32@_J@Z
?trtrs@Type@at@@UEBA?AV?$tuple@UTensor@at@@U12@@std@@AEBUTensor@2@0_N11@Z
?trtrs_out@Type@at@@UEBA?AV?$tuple@AEAUTensor@at@@AEAU12@@std@@AEAUTensor@2@0AEBU52@1_N22@Z
?trunc@Type@at@@UEBA?AUTensor@2@AEBU32@@Z
?trunc_out@Type@at@@UEBAAEAUTensor@2@AEAU32@AEBU32@@Z
?typeString@UndefinedTensor@at@@SAPEBDXZ
?unsafeGetTH@UndefinedTensor@at@@UEAAPEAX_N@Z
?unsqueeze@Type@at@@UEBA?AUTensor@2@AEBU32@_J@Z
?unsqueeze_out@Type@at@@UEBAAEAUTensor@2@AEAU32@AEBU32@_J@Z
?var@Type@at@@UEBA?AUTensor@2@AEBU32@_J_N2@Z
?var@Type@at@@UEBA?AVScalar@2@AEBUTensor@2@_N@Z
?var_out@Type@at@@UEBAAEAUTensor@2@AEAU32@AEBU32@_J_N3@Z
?zeros@Type@at@@UEBA?AUTensor@2@V?$ArrayRef@_J@2@@Z
?zeros_like@Type@at@@UEBA?AUTensor@2@AEBU32@@Z
?zeros_like_out@Type@at@@UEBAAEAUTensor@2@AEAU32@AEBU32@@Z
?zeros_out@Type@at@@UEBAAEAUTensor@2@AEAU32@V?$ArrayRef@_J@2@@Z

